target datalayout = "e-m:e-p270:32:32-p271:32:32-p272:64:64-i64:64-i128:128-f80:128-n8:16:32:64-S128"
target triple = "x86_64-pc-linux-gnu"

%struct.ppm_dest_struct = type { %struct.djpeg_dest_struct, ptr, ptr, i64, i32 }
%struct.djpeg_dest_struct = type { ptr, ptr, ptr, ptr, ptr, ptr, ptr, ptr, i32 }

; Function Attrs: nounwind uwtable
define internal void @put_pixel_rows(ptr noundef %0, ptr noundef %1, i32 noundef %2) #0 {
  %4 = alloca ptr, align 8
  %5 = alloca ptr, align 8
  %6 = alloca i32, align 4
  %7 = alloca ptr, align 8
  store ptr %0, ptr %4, align 8, !tbaa !4
  store ptr %1, ptr %5, align 8, !tbaa !61
  store i32 %2, ptr %6, align 4, !tbaa !68
  call void @llvm.lifetime.start.p0(i64 8, ptr %7) #6
  %8 = load ptr, ptr %5, align 8, !tbaa !61
  store ptr %8, ptr %7, align 8, !tbaa !42
  %9 = load ptr, ptr %7, align 8, !tbaa !42
  %10 = getelementptr inbounds nuw %struct.ppm_dest_struct, ptr %9, i32 0, i32 1
  %11 = load ptr, ptr %10, align 8, !tbaa !51
  %12 = load ptr, ptr %7, align 8, !tbaa !42
  %13 = getelementptr inbounds nuw %struct.ppm_dest_struct, ptr %12, i32 0, i32 3
  %14 = load i64, ptr %13, align 8, !tbaa !50
  %15 = load ptr, ptr %7, align 8, !tbaa !42
  %16 = getelementptr inbounds nuw %struct.ppm_dest_struct, ptr %15, i32 0, i32 0
  %17 = getelementptr inbounds nuw %struct.djpeg_dest_struct, ptr %16, i32 0, i32 4
  %18 = load ptr, ptr %17, align 8, !tbaa !63
  %19 = call i64 @fwrite(ptr noundef %11, i64 noundef 1, i64 noundef %14, ptr noundef %18)
  call void @llvm.lifetime.end.p0(i64 8, ptr %7) #6
  ret void
}