; Function Attrs: nofree nounwind uwtable
define internal void @put_pixel_rows(ptr readnone captures(none) %0, ptr noundef readonly captures(none) %1, i32 %2) #3 {
  %4 = getelementptr inbounds nuw i8, ptr %1, i64 72
  %5 = load ptr, ptr %4, align 8, !tbaa !48
  %6 = getelementptr inbounds nuw i8, ptr %1, i64 88
  %7 = load i64, ptr %6, align 8, !tbaa !47
  %8 = getelementptr inbounds nuw i8, ptr %1, i64 32
  %9 = load ptr, ptr %8, align 8, !tbaa !58
  %10 = tail call i64 @fwrite(ptr noundef %5, i64 noundef 1, i64 noundef %7, ptr noundef %9)
  ret void
}